; Function Attrs: nounwind uwtable
define internal void @container_packet_reset(ptr readnone captures(none) %0, ptr noundef %1) #3 {
  %3 = getelementptr inbounds nuw i8, ptr %1, i64 56
  %4 = load i32, ptr %3, align 8, !tbaa !22
  %5 = icmp sgt i32 %4, 0
  br i1 %5, label %.lr.ph.i.i, label %av_packet_unref.exit

.lr.ph.i.i:                                       ; preds = %2
  %6 = getelementptr inbounds nuw i8, ptr %1, i64 48
  br label %7

7:                                                ; preds = %7, %.lr.ph.i.i
  %indvars.iv.i.i = phi i64 [ 0, %.lr.ph.i.i ], [ %indvars.iv.next.i.i, %7 ]
  %8 = load ptr, ptr %6, align 8, !tbaa !21
  %9 = getelementptr inbounds nuw %struct.AVPacketSideData, ptr %8, i64 %indvars.iv.i.i
  tail call void @av_freep(ptr noundef %9) #16
  %indvars.iv.next.i.i = add nuw nsw i64 %indvars.iv.i.i, 1
  %10 = load i32, ptr %3, align 8, !tbaa !22
  %11 = sext i32 %10 to i64
  %12 = icmp slt i64 %indvars.iv.next.i.i, %11
  br i1 %12, label %7, label %av_packet_unref.exit, !llvm.loop !25

av_packet_unref.exit:                             ; preds = %7, %2
  %13 = getelementptr inbounds nuw i8, ptr %1, i64 48
  tail call void @av_freep(ptr noundef nonnull %13) #16
  store i32 0, ptr %3, align 8, !tbaa !22
  %14 = getelementptr inbounds nuw i8, ptr %1, i64 88
  tail call void @av_buffer_unref(ptr noundef nonnull %14) #16
  tail call void @av_buffer_unref(ptr noundef nonnull %1) #16
  tail call void @llvm.memset.p0.i64(ptr noundef nonnull align 8 dereferenceable(104) %1, i8 0, i64 96, i1 false)
  %15 = getelementptr inbounds nuw i8, ptr %1, i64 8
  store i64 -9223372036854775808, ptr %15, align 8, !tbaa !4
  %16 = getelementptr inbounds nuw i8, ptr %1, i64 16
  store i64 -9223372036854775808, ptr %16, align 8, !tbaa !15
  %17 = getelementptr inbounds nuw i8, ptr %1, i64 72
  store i64 -1, ptr %17, align 8, !tbaa !16
  %18 = getelementptr inbounds nuw i8, ptr %1, i64 96
  store i64 4294967296, ptr %18, align 8
  ret void
}